; Function Attrs: mustprogress nounwind uwtable
define dso_local void @_ZN3net22QuicCryptoServerConfig13ConfigOptionsC2Ev(ptr noundef nonnull align 8 dereferenceable(105) %this) unnamed_addr #4 align 2 {
entry:
  store i64 0, ptr %this, align 8
  %channel_id_enabled = getelementptr inbounds i8, ptr %this, i64 8
  store i8 0, ptr %channel_id_enabled, align 8
  %token_binding_params = getelementptr inbounds i8, ptr %this, i64 16
  tail call void @llvm.memset.p0.i64(ptr noundef nonnull align 8 dereferenceable(24) %token_binding_params, i8 0, i64 24, i1 false)
  %id = getelementptr inbounds i8, ptr %this, i64 40
  tail call void @_ZNSt7__cxx1112basic_stringIcSt11char_traitsIcESaIcEEC1Ev(ptr noundef nonnull align 8 dereferenceable(32) %id) #20
  %orbit = getelementptr inbounds i8, ptr %this, i64 72
  tail call void @_ZNSt7__cxx1112basic_stringIcSt11char_traitsIcESaIcEEC1Ev(ptr noundef nonnull align 8 dereferenceable(32) %orbit) #20
  %p256 = getelementptr inbounds i8, ptr %this, i64 104
  store i8 0, ptr %p256, align 8
  ret void
}